target datalayout = "e-m:e-p270:32:32-p271:32:32-p272:64:64-i64:64-i128:128-f80:128-n8:16:32:64-S128"
target triple = "x86_64-unknown-linux-gnu"

%"class.std::set.0" = type { %"class.std::_Rb_tree.1" }
%"class.std::_Rb_tree.1" = type { %"struct.std::_Rb_tree<QuantLib::Observer *, QuantLib::Observer *, std::_Identity<QuantLib::Observer *>, std::less<QuantLib::Observer *>>::_Rb_tree_impl" }
%"struct.std::_Rb_tree<QuantLib::Observer *, QuantLib::Observer *, std::_Identity<QuantLib::Observer *>, std::less<QuantLib::Observer *>>::_Rb_tree_impl" = type { [8 x i8], %"struct.std::_Rb_tree_header" }
%"struct.std::_Rb_tree_header" = type { %"struct.std::_Rb_tree_node_base", i64 }
%"struct.std::_Rb_tree_node_base" = type { i32, ptr, ptr, ptr }
%"class.QuantLib::Date" = type { i64 }
%"class.boost::detail::shared_count" = type { ptr }
%"class.std::set" = type { %"class.std::_Rb_tree" }
%"class.std::_Rb_tree" = type { %"struct.std::_Rb_tree<boost::shared_ptr<QuantLib::Observable>, boost::shared_ptr<QuantLib::Observable>, std::_Identity<boost::shared_ptr<QuantLib::Observable>>, std::less<boost::shared_ptr<QuantLib::Observable>>>::_Rb_tree_impl" }
%"struct.std::_Rb_tree<boost::shared_ptr<QuantLib::Observable>, boost::shared_ptr<QuantLib::Observable>, std::_Identity<boost::shared_ptr<QuantLib::Observable>>, std::less<boost::shared_ptr<QuantLib::Observable>>>::_Rb_tree_impl" = type { [8 x i8], %"struct.std::_Rb_tree_header" }
%"class.QuantLib::Observable" = type { ptr, %"class.std::set.0" }
%"class.QuantLib::Observer" = type { ptr, %"class.std::set" }
%"class.QuantLib::CashFlow.base" = type <{ %"class.QuantLib::Event.base", %"class.QuantLib::LazyObject.base" }>
%"class.QuantLib::Event.base" = type { ptr }
%"class.QuantLib::LazyObject.base" = type <{ ptr, i8, i8, i8, i8 }>
%"class.QuantLib::Null" = type { i8 }
%"class.QuantLib::DayCounter" = type { %"class.boost::shared_ptr.16" }
%"class.boost::shared_ptr.16" = type { ptr, %"class.boost::detail::shared_count" }
%"class.QuantLib::DigitalCoupon" = type <{ %"class.QuantLib::FloatingRateCoupon.base", %"class.boost::shared_ptr.52", double, double, double, double, i8, i8, i8, i8, [4 x i8], double, double, double, double, double, double, i8, i8, [2 x i8], i32, i8, [7 x i8], %"class.QuantLib::Observable", %"class.QuantLib::Observer" }>
%"class.QuantLib::FloatingRateCoupon.base" = type { %"class.QuantLib::Coupon.base", %"class.boost::shared_ptr.50", %"class.QuantLib::DayCounter", i32, double, double, i8, %"class.boost::shared_ptr.51", double }
%"class.QuantLib::Coupon.base" = type { %"class.QuantLib::CashFlow.base", %"class.QuantLib::Date", double, %"class.QuantLib::Date", %"class.QuantLib::Date", %"class.QuantLib::Date", %"class.QuantLib::Date", %"class.QuantLib::Date", double }
%"class.boost::shared_ptr.50" = type { ptr, %"class.boost::detail::shared_count" }
%"class.boost::shared_ptr.51" = type { ptr, %"class.boost::detail::shared_count" }
%"class.boost::shared_ptr.52" = type { ptr, %"class.boost::detail::shared_count" }
%"class.QuantLib::CappedFlooredCoupon" = type { %"class.QuantLib::FloatingRateCoupon.base", %"class.boost::shared_ptr.52", i8, i8, double, double, %"class.QuantLib::Observable", %"class.QuantLib::Observer" }

@.str.16 = private unnamed_addr constant [8 x i8] c"px != 0\00", align 1
@.str.17 = private unnamed_addr constant [102 x i8] c"generated/home/dtcxzyw/WorkSpace/SDK/vcpkg/installed/x64-linux/include/boost/smart_ptr/shared_ptr.hpp\00", align 1
@__PRETTY_FUNCTION__._ZNK5boost10shared_ptrIN8QuantLib18FloatingRateCouponEEptEv = private unnamed_addr constant [153 x i8] c"typename boost::detail::sp_member_access<T>::type boost::shared_ptr<QuantLib::FloatingRateCoupon>::operator->() const [T = QuantLib::FloatingRateCoupon]\00", align 1

; Function Attrs: mustprogress nounwind uwtable
define linkonce_odr noundef float @_ZNSt14numeric_limitsIfE3maxEv() #1 comdat align 2 {
entry:
  ret float 0x47EFFFFFE0000000
}

; Function Attrs: mustprogress nounwind uwtable
define linkonce_odr noundef float @_ZN8QuantLib6detail17FloatingPointNullILb1EE9nullValueEv() #1 comdat align 2 {
entry:
  %call = call noundef float @_ZNSt14numeric_limitsIfE3maxEv() #14
  ret float %call
}

; Function Attrs: mustprogress uwtable
define linkonce_odr noundef ptr @_ZNK5boost10shared_ptrIN8QuantLib18FloatingRateCouponEEptEv(ptr noundef nonnull align 8 dereferenceable(16) %this) #2 comdat align 2 {
entry:
  %this.addr = alloca ptr, align 8
  store ptr %this, ptr %this.addr, align 8, !tbaa !3
  %this1 = load ptr, ptr %this.addr, align 8
  %px = getelementptr inbounds nuw %"class.boost::shared_ptr.52", ptr %this1, i32 0, i32 0
  %0 = load ptr, ptr %px, align 8, !tbaa !64
  %cmp = icmp ne ptr %0, null
  %lnot = xor i1 %cmp, true
  %lnot2 = xor i1 %lnot, true
  %conv = zext i1 %lnot2 to i64
  %expval = call i64 @llvm.expect.i64(i64 %conv, i64 1)
  %tobool = icmp ne i64 %expval, 0
  br i1 %tobool, label %cond.true, label %cond.false

cond.true:                                        ; preds = %entry
  br label %cond.end

cond.false:                                       ; preds = %entry
  call void @_ZN5boost16assertion_failedEPKcS1_S1_l(ptr noundef @.str.16, ptr noundef @__PRETTY_FUNCTION__._ZNK5boost10shared_ptrIN8QuantLib18FloatingRateCouponEEptEv, ptr noundef @.str.17, i64 noundef 784)
  br label %cond.end

cond.end:                                         ; preds = %cond.false, %cond.true
  %px3 = getelementptr inbounds nuw %"class.boost::shared_ptr.52", ptr %this1, i32 0, i32 0
  %1 = load ptr, ptr %px3, align 8, !tbaa !64
  ret ptr %1
}

; Function Attrs: mustprogress uwtable
define linkonce_odr noundef double @_ZNK8QuantLib4NullIdEcvdEv(ptr noundef nonnull align 1 dereferenceable(1) %this) #2 comdat align 2 {
entry:
  %this.addr = alloca ptr, align 8
  store ptr %this, ptr %this.addr, align 8, !tbaa !3
  %call = call noundef float @_ZN8QuantLib6detail17FloatingPointNullILb1EE9nullValueEv()
  %conv = fpext float %call to double
  ret double %conv
}

; Function Attrs: mustprogress uwtable
define noundef double @_ZNK8QuantLib13DigitalCoupon14callOptionRateEv(ptr noundef nonnull align 8 dereferenceable(289) %this) #2 align 2 personality ptr @__gxx_personality_v0 {
entry:
  %this.addr = alloca ptr, align 8
  %callOptionRate = alloca double, align 8
  %next = alloca %"class.QuantLib::CappedFlooredCoupon", align 8
  %ref.tmp = alloca %"class.QuantLib::Null", align 1
  %previous = alloca %"class.QuantLib::CappedFlooredCoupon", align 8
  %ref.tmp6 = alloca %"class.QuantLib::Null", align 1
  %exn.slot = alloca ptr, align 8
  %ehselector.slot = alloca i32, align 4
  %atStrike = alloca %"class.QuantLib::CappedFlooredCoupon", align 8
  %ref.tmp23 = alloca %"class.QuantLib::Null", align 1
  %call28 = alloca double, align 8
  store ptr %this, ptr %this.addr, align 8, !tbaa !3
  %this1 = load ptr, ptr %this.addr, align 8
  call void @llvm.lifetime.start.p0(i64 8, ptr %callOptionRate) #14
  store double 0.000000e+00, ptr %callOptionRate, align 8, !tbaa !33
  %hasCallStrike_ = getelementptr inbounds nuw %"class.QuantLib::DigitalCoupon", ptr %this1, i32 0, i32 18
  %0 = load i8, ptr %hasCallStrike_, align 1, !tbaa !53, !range !15, !noundef !16
  %loadedv = trunc i8 %0 to i1
  br i1 %loadedv, label %if.then, label %if.end43

if.then:                                          ; preds = %entry
  %isCallCashOrNothing_ = getelementptr inbounds nuw %"class.QuantLib::DigitalCoupon", ptr %this1, i32 0, i32 8
  %1 = load i8, ptr %isCallCashOrNothing_, align 2, !tbaa !50, !range !15, !noundef !16
  %loadedv2 = trunc i8 %1 to i1
  br i1 %loadedv2, label %cond.true, label %cond.false

cond.true:                                        ; preds = %if.then
  %callDigitalPayoff_ = getelementptr inbounds nuw %"class.QuantLib::DigitalCoupon", ptr %this1, i32 0, i32 11
  %2 = load double, ptr %callDigitalPayoff_, align 8, !tbaa !61
  br label %cond.end

cond.false:                                       ; preds = %if.then
  %callStrike_ = getelementptr inbounds nuw %"class.QuantLib::DigitalCoupon", ptr %this1, i32 0, i32 2
  %3 = load double, ptr %callStrike_, align 8, !tbaa !60
  br label %cond.end

cond.end:                                         ; preds = %cond.false, %cond.true
  %cond = phi double [ %2, %cond.true ], [ %3, %cond.false ]
  store double %cond, ptr %callOptionRate, align 8, !tbaa !33
  call void @llvm.lifetime.start.p0(i64 328, ptr %next) #14
  %underlying_ = getelementptr inbounds nuw %"class.QuantLib::DigitalCoupon", ptr %this1, i32 0, i32 1
  %callStrike_3 = getelementptr inbounds nuw %"class.QuantLib::DigitalCoupon", ptr %this1, i32 0, i32 2
  %4 = load double, ptr %callStrike_3, align 8, !tbaa !60
  %callRightEps_ = getelementptr inbounds nuw %"class.QuantLib::DigitalCoupon", ptr %this1, i32 0, i32 14
  %5 = load double, ptr %callRightEps_, align 8, !tbaa !57
  %add = fadd double %4, %5
  call void @llvm.lifetime.start.p0(i64 1, ptr %ref.tmp) #14
  %call = call noundef double @_ZNK8QuantLib4NullIdEcvdEv(ptr noundef nonnull align 1 dereferenceable(1) %ref.tmp)
  call void @_ZN8QuantLib19CappedFlooredCouponC1ERKN5boost10shared_ptrINS_18FloatingRateCouponEEEdd(ptr noundef nonnull align 8 dereferenceable(216) %next, ptr noundef nonnull align 8 dereferenceable(16) %underlying_, double noundef %add, double noundef %call)
  call void @llvm.lifetime.end.p0(i64 1, ptr %ref.tmp) #14
  call void @llvm.lifetime.start.p0(i64 328, ptr %previous) #14
  %underlying_4 = getelementptr inbounds nuw %"class.QuantLib::DigitalCoupon", ptr %this1, i32 0, i32 1
  %callStrike_5 = getelementptr inbounds nuw %"class.QuantLib::DigitalCoupon", ptr %this1, i32 0, i32 2
  %6 = load double, ptr %callStrike_5, align 8, !tbaa !60
  %callLeftEps_ = getelementptr inbounds nuw %"class.QuantLib::DigitalCoupon", ptr %this1, i32 0, i32 13
  %7 = load double, ptr %callLeftEps_, align 8, !tbaa !58
  %sub = fsub double %6, %7
  call void @llvm.lifetime.start.p0(i64 1, ptr %ref.tmp6) #14
  %call7 = invoke noundef double @_ZNK8QuantLib4NullIdEcvdEv(ptr noundef nonnull align 1 dereferenceable(1) %ref.tmp6)
          to label %invoke.cont unwind label %lpad

invoke.cont:                                      ; preds = %cond.end
  invoke void @_ZN8QuantLib19CappedFlooredCouponC1ERKN5boost10shared_ptrINS_18FloatingRateCouponEEEdd(ptr noundef nonnull align 8 dereferenceable(216) %previous, ptr noundef nonnull align 8 dereferenceable(16) %underlying_4, double noundef %sub, double noundef %call7)
          to label %invoke.cont8 unwind label %lpad

invoke.cont8:                                     ; preds = %invoke.cont
  call void @llvm.lifetime.end.p0(i64 1, ptr %ref.tmp6) #14
  %call11 = invoke noundef double @_ZNK8QuantLib19CappedFlooredCoupon4rateEv(ptr noundef nonnull align 8 dereferenceable(216) %next)
          to label %invoke.cont10 unwind label %lpad9

invoke.cont10:                                    ; preds = %invoke.cont8
  %call13 = invoke noundef double @_ZNK8QuantLib19CappedFlooredCoupon4rateEv(ptr noundef nonnull align 8 dereferenceable(216) %previous)
          to label %invoke.cont12 unwind label %lpad9

invoke.cont12:                                    ; preds = %invoke.cont10
  %sub14 = fsub double %call11, %call13
  %callLeftEps_15 = getelementptr inbounds nuw %"class.QuantLib::DigitalCoupon", ptr %this1, i32 0, i32 13
  %8 = load double, ptr %callLeftEps_15, align 8, !tbaa !58
  %callRightEps_16 = getelementptr inbounds nuw %"class.QuantLib::DigitalCoupon", ptr %this1, i32 0, i32 14
  %9 = load double, ptr %callRightEps_16, align 8, !tbaa !57
  %add17 = fadd double %8, %9
  %div = fdiv double %sub14, %add17
  %10 = load double, ptr %callOptionRate, align 8, !tbaa !33
  %mul = fmul double %10, %div
  store double %mul, ptr %callOptionRate, align 8, !tbaa !33
  %isCallCashOrNothing_18 = getelementptr inbounds nuw %"class.QuantLib::DigitalCoupon", ptr %this1, i32 0, i32 8
  %11 = load i8, ptr %isCallCashOrNothing_18, align 2, !tbaa !50, !range !15, !noundef !16
  %loadedv19 = trunc i8 %11 to i1
  br i1 %loadedv19, label %if.end, label %if.then20

if.then20:                                        ; preds = %invoke.cont12
  call void @llvm.lifetime.start.p0(i64 328, ptr %atStrike) #14
  %underlying_21 = getelementptr inbounds nuw %"class.QuantLib::DigitalCoupon", ptr %this1, i32 0, i32 1
  %callStrike_22 = getelementptr inbounds nuw %"class.QuantLib::DigitalCoupon", ptr %this1, i32 0, i32 2
  %12 = load double, ptr %callStrike_22, align 8, !tbaa !60
  call void @llvm.lifetime.start.p0(i64 1, ptr %ref.tmp23) #14
  %call26 = invoke noundef double @_ZNK8QuantLib4NullIdEcvdEv(ptr noundef nonnull align 1 dereferenceable(1) %ref.tmp23)
          to label %invoke.cont25 unwind label %lpad24

invoke.cont25:                                    ; preds = %if.then20
  invoke void @_ZN8QuantLib19CappedFlooredCouponC1ERKN5boost10shared_ptrINS_18FloatingRateCouponEEEdd(ptr noundef nonnull align 8 dereferenceable(216) %atStrike, ptr noundef nonnull align 8 dereferenceable(16) %underlying_21, double noundef %12, double noundef %call26)
          to label %invoke.cont27 unwind label %lpad24

invoke.cont27:                                    ; preds = %invoke.cont25
  call void @llvm.lifetime.end.p0(i64 1, ptr %ref.tmp23) #14
  call void @llvm.lifetime.start.p0(i64 8, ptr %call28) #14
  %underlying_29 = getelementptr inbounds nuw %"class.QuantLib::DigitalCoupon", ptr %this1, i32 0, i32 1
  %call32 = invoke noundef ptr @_ZNK5boost10shared_ptrIN8QuantLib18FloatingRateCouponEEptEv(ptr noundef nonnull align 8 dereferenceable(16) %underlying_29)
          to label %invoke.cont31 unwind label %lpad30

invoke.cont31:                                    ; preds = %invoke.cont27
  %vtable = load ptr, ptr %call32, align 8, !tbaa !20
  %vfn = getelementptr inbounds ptr, ptr %vtable, i64 9
  %13 = load ptr, ptr %vfn, align 8
  %call34 = invoke noundef double %13(ptr noundef nonnull align 8 dereferenceable(176) %call32)
          to label %invoke.cont33 unwind label %lpad30

invoke.cont33:                                    ; preds = %invoke.cont31
  %call36 = invoke noundef double @_ZNK8QuantLib19CappedFlooredCoupon4rateEv(ptr noundef nonnull align 8 dereferenceable(216) %atStrike)
          to label %invoke.cont35 unwind label %lpad30

invoke.cont35:                                    ; preds = %invoke.cont33
  %sub37 = fsub double %call34, %call36
  store double %sub37, ptr %call28, align 8, !tbaa !33
  %14 = load double, ptr %call28, align 8, !tbaa !33
  %15 = load double, ptr %callOptionRate, align 8, !tbaa !33
  %add38 = fadd double %15, %14
  store double %add38, ptr %callOptionRate, align 8, !tbaa !33
  call void @llvm.lifetime.end.p0(i64 8, ptr %call28) #14
  call void @_ZN8QuantLib19CappedFlooredCouponD1Ev(ptr noundef nonnull align 8 dereferenceable(216) %atStrike) #14
  call void @llvm.lifetime.end.p0(i64 328, ptr %atStrike) #14
  br label %if.end

lpad:                                             ; preds = %invoke.cont, %cond.end
  %16 = landingpad { ptr, i32 }
          cleanup
  %17 = extractvalue { ptr, i32 } %16, 0
  store ptr %17, ptr %exn.slot, align 8
  %18 = extractvalue { ptr, i32 } %16, 1
  store i32 %18, ptr %ehselector.slot, align 4
  call void @llvm.lifetime.end.p0(i64 1, ptr %ref.tmp6) #14
  br label %ehcleanup40

lpad9:                                            ; preds = %invoke.cont10, %invoke.cont8
  %19 = landingpad { ptr, i32 }
          cleanup
  %20 = extractvalue { ptr, i32 } %19, 0
  store ptr %20, ptr %exn.slot, align 8
  %21 = extractvalue { ptr, i32 } %19, 1
  store i32 %21, ptr %ehselector.slot, align 4
  br label %ehcleanup39

lpad24:                                           ; preds = %invoke.cont25, %if.then20
  %22 = landingpad { ptr, i32 }
          cleanup
  %23 = extractvalue { ptr, i32 } %22, 0
  store ptr %23, ptr %exn.slot, align 8
  %24 = extractvalue { ptr, i32 } %22, 1
  store i32 %24, ptr %ehselector.slot, align 4
  call void @llvm.lifetime.end.p0(i64 1, ptr %ref.tmp23) #14
  br label %ehcleanup

lpad30:                                           ; preds = %invoke.cont33, %invoke.cont31, %invoke.cont27
  %25 = landingpad { ptr, i32 }
          cleanup
  %26 = extractvalue { ptr, i32 } %25, 0
  store ptr %26, ptr %exn.slot, align 8
  %27 = extractvalue { ptr, i32 } %25, 1
  store i32 %27, ptr %ehselector.slot, align 4
  call void @llvm.lifetime.end.p0(i64 8, ptr %call28) #14
  call void @_ZN8QuantLib19CappedFlooredCouponD1Ev(ptr noundef nonnull align 8 dereferenceable(216) %atStrike) #14
  br label %ehcleanup

ehcleanup:                                        ; preds = %lpad30, %lpad24
  call void @llvm.lifetime.end.p0(i64 328, ptr %atStrike) #14
  br label %ehcleanup39

if.end:                                           ; preds = %invoke.cont35, %invoke.cont12
  call void @_ZN8QuantLib19CappedFlooredCouponD1Ev(ptr noundef nonnull align 8 dereferenceable(216) %previous) #14
  call void @llvm.lifetime.end.p0(i64 328, ptr %previous) #14
  call void @_ZN8QuantLib19CappedFlooredCouponD1Ev(ptr noundef nonnull align 8 dereferenceable(216) %next) #14
  call void @llvm.lifetime.end.p0(i64 328, ptr %next) #14
  br label %if.end43

ehcleanup39:                                      ; preds = %ehcleanup, %lpad9
  call void @_ZN8QuantLib19CappedFlooredCouponD1Ev(ptr noundef nonnull align 8 dereferenceable(216) %previous) #14
  br label %ehcleanup40

ehcleanup40:                                      ; preds = %ehcleanup39, %lpad
  call void @llvm.lifetime.end.p0(i64 328, ptr %previous) #14
  call void @_ZN8QuantLib19CappedFlooredCouponD1Ev(ptr noundef nonnull align 8 dereferenceable(216) %next) #14
  call void @llvm.lifetime.end.p0(i64 328, ptr %next) #14
  call void @llvm.lifetime.end.p0(i64 8, ptr %callOptionRate) #14
  br label %eh.resume

if.end43:                                         ; preds = %if.end, %entry
  %28 = load double, ptr %callOptionRate, align 8, !tbaa !33
  call void @llvm.lifetime.end.p0(i64 8, ptr %callOptionRate) #14
  ret double %28

eh.resume:                                        ; preds = %ehcleanup40
  %exn = load ptr, ptr %exn.slot, align 8
  %sel = load i32, ptr %ehselector.slot, align 4
  %lpad.val = insertvalue { ptr, i32 } poison, ptr %exn, 0
  %lpad.val45 = insertvalue { ptr, i32 } %lpad.val, i32 %sel, 1
  resume { ptr, i32 } %lpad.val45
}