; Function Attrs: mustprogress uwtable
define noundef double @_ZNK8QuantLib13DigitalCoupon14callOptionRateEv(ptr noundef nonnull align 8 dereferenceable(289) %this) local_unnamed_addr #8 align 2 personality ptr @__gxx_personality_v0 {
entry:
  %next = alloca %"class.QuantLib::CappedFlooredCoupon", align 8
  %previous = alloca %"class.QuantLib::CappedFlooredCoupon", align 8
  %atStrike = alloca %"class.QuantLib::CappedFlooredCoupon", align 8
  %hasCallStrike_ = getelementptr inbounds nuw i8, ptr %this, i64 281
  %0 = load i8, ptr %hasCallStrike_, align 1, !tbaa !71, !range !26, !noundef !27
  %loadedv = trunc nuw i8 %0 to i1
  br i1 %loadedv, label %invoke.cont, label %if.end43

invoke.cont:                                      ; preds = %entry
  %isCallCashOrNothing_ = getelementptr inbounds nuw i8, ptr %this, i64 226
  %1 = load i8, ptr %isCallCashOrNothing_, align 2, !tbaa !68, !range !26, !noundef !27
  %loadedv2 = trunc nuw i8 %1 to i1
  %callDigitalPayoff_ = getelementptr inbounds nuw i8, ptr %this, i64 232
  %callStrike_ = getelementptr inbounds nuw i8, ptr %this, i64 192
  %callDigitalPayoff_.val = load double, ptr %callDigitalPayoff_, align 8
  %callStrike_.val = load double, ptr %callStrike_, align 8
  %cond = select i1 %loadedv2, double %callDigitalPayoff_.val, double %callStrike_.val
  call void @llvm.lifetime.start.p0(i64 328, ptr nonnull %next) #27
  %underlying_ = getelementptr inbounds nuw i8, ptr %this, i64 176
  %callRightEps_ = getelementptr inbounds nuw i8, ptr %this, i64 256
  %2 = load double, ptr %callRightEps_, align 8, !tbaa !80
  %add = fadd double %callStrike_.val, %2
  call void @_ZN8QuantLib19CappedFlooredCouponC1ERKN5boost10shared_ptrINS_18FloatingRateCouponEEEdd(ptr noundef nonnull align 8 dereferenceable(216) %next, ptr noundef nonnull align 8 dereferenceable(16) %underlying_, double noundef %add, double noundef 0x47EFFFFFE0000000)
  call void @llvm.lifetime.start.p0(i64 328, ptr nonnull %previous) #27
  %3 = load double, ptr %callStrike_, align 8, !tbaa !84
  %callLeftEps_ = getelementptr inbounds nuw i8, ptr %this, i64 248
  %4 = load double, ptr %callLeftEps_, align 8, !tbaa !81
  %sub = fsub double %3, %4
  invoke void @_ZN8QuantLib19CappedFlooredCouponC1ERKN5boost10shared_ptrINS_18FloatingRateCouponEEEdd(ptr noundef nonnull align 8 dereferenceable(216) %previous, ptr noundef nonnull align 8 dereferenceable(16) %underlying_, double noundef %sub, double noundef 0x47EFFFFFE0000000)
          to label %invoke.cont8 unwind label %lpad

invoke.cont8:                                     ; preds = %invoke.cont
  %call11 = invoke noundef double @_ZNK8QuantLib19CappedFlooredCoupon4rateEv(ptr noundef nonnull align 8 dereferenceable(216) %next)
          to label %invoke.cont10 unwind label %lpad9

invoke.cont10:                                    ; preds = %invoke.cont8
  %call13 = invoke noundef double @_ZNK8QuantLib19CappedFlooredCoupon4rateEv(ptr noundef nonnull align 8 dereferenceable(216) %previous)
          to label %invoke.cont12 unwind label %lpad9

invoke.cont12:                                    ; preds = %invoke.cont10
  %sub14 = fsub double %call11, %call13
  %5 = load double, ptr %callLeftEps_, align 8, !tbaa !81
  %6 = load double, ptr %callRightEps_, align 8, !tbaa !80
  %add17 = fadd double %5, %6
  %div = fdiv double %sub14, %add17
  %mul = fmul double %cond, %div
  %7 = load i8, ptr %isCallCashOrNothing_, align 2, !tbaa !68, !range !26, !noundef !27
  %loadedv19 = trunc nuw i8 %7 to i1
  br i1 %loadedv19, label %if.end, label %invoke.cont25

invoke.cont25:                                    ; preds = %invoke.cont12
  call void @llvm.lifetime.start.p0(i64 328, ptr nonnull %atStrike) #27
  %8 = load double, ptr %callStrike_, align 8, !tbaa !84
  invoke void @_ZN8QuantLib19CappedFlooredCouponC1ERKN5boost10shared_ptrINS_18FloatingRateCouponEEEdd(ptr noundef nonnull align 8 dereferenceable(216) %atStrike, ptr noundef nonnull align 8 dereferenceable(16) %underlying_, double noundef %8, double noundef 0x47EFFFFFE0000000)
          to label %invoke.cont27 unwind label %lpad24

invoke.cont27:                                    ; preds = %invoke.cont25
  %9 = load ptr, ptr %underlying_, align 8, !tbaa !50
  %cmp.not.i = icmp eq ptr %9, null
  br i1 %cmp.not.i, label %cond.false.i, label %invoke.cont31, !prof !52

cond.false.i:                                     ; preds = %invoke.cont27
  invoke void @_ZN5boost16assertion_failedEPKcS1_S1_l(ptr noundef nonnull @.str.16, ptr noundef nonnull @__PRETTY_FUNCTION__._ZNK5boost10shared_ptrIN8QuantLib18FloatingRateCouponEEptEv, ptr noundef nonnull @.str.17, i64 noundef 784)
          to label %.noexc unwind label %lpad30

.noexc:                                           ; preds = %cond.false.i
  %.pre.i = load ptr, ptr %underlying_, align 8, !tbaa !50
  br label %invoke.cont31

invoke.cont31:                                    ; preds = %.noexc, %invoke.cont27
  %10 = phi ptr [ %9, %invoke.cont27 ], [ %.pre.i, %.noexc ]
  %vtable = load ptr, ptr %10, align 8, !tbaa !33
  %vfn = getelementptr inbounds i8, ptr %vtable, i64 72
  %11 = load ptr, ptr %vfn, align 8
  %call34 = invoke noundef double %11(ptr noundef nonnull align 8 dereferenceable(176) %10)
          to label %invoke.cont33 unwind label %lpad30

invoke.cont33:                                    ; preds = %invoke.cont31
  %call36 = invoke noundef double @_ZNK8QuantLib19CappedFlooredCoupon4rateEv(ptr noundef nonnull align 8 dereferenceable(216) %atStrike)
          to label %invoke.cont35 unwind label %lpad30

invoke.cont35:                                    ; preds = %invoke.cont33
  %sub37 = fsub double %call34, %call36
  %add38 = fadd double %mul, %sub37
  call void @_ZN8QuantLib19CappedFlooredCouponD1Ev(ptr noundef nonnull align 8 dereferenceable(216) %atStrike) #27
  call void @llvm.lifetime.end.p0(i64 328, ptr nonnull %atStrike) #27
  br label %if.end

lpad:                                             ; preds = %invoke.cont
  %12 = landingpad { ptr, i32 }
          cleanup
  br label %ehcleanup40

lpad9:                                            ; preds = %invoke.cont10, %invoke.cont8
  %13 = landingpad { ptr, i32 }
          cleanup
  br label %ehcleanup39

lpad24:                                           ; preds = %invoke.cont25
  %14 = landingpad { ptr, i32 }
          cleanup
  br label %ehcleanup

lpad30:                                           ; preds = %cond.false.i, %invoke.cont33, %invoke.cont31
  %15 = landingpad { ptr, i32 }
          cleanup
  call void @_ZN8QuantLib19CappedFlooredCouponD1Ev(ptr noundef nonnull align 8 dereferenceable(216) %atStrike) #27
  br label %ehcleanup

ehcleanup:                                        ; preds = %lpad30, %lpad24
  %.pn = phi { ptr, i32 } [ %15, %lpad30 ], [ %14, %lpad24 ]
  call void @llvm.lifetime.end.p0(i64 328, ptr nonnull %atStrike) #27
  br label %ehcleanup39

if.end:                                           ; preds = %invoke.cont35, %invoke.cont12
  %callOptionRate.1 = phi double [ %mul, %invoke.cont12 ], [ %add38, %invoke.cont35 ]
  call void @_ZN8QuantLib19CappedFlooredCouponD1Ev(ptr noundef nonnull align 8 dereferenceable(216) %previous) #27
  call void @llvm.lifetime.end.p0(i64 328, ptr nonnull %previous) #27
  call void @_ZN8QuantLib19CappedFlooredCouponD1Ev(ptr noundef nonnull align 8 dereferenceable(216) %next) #27
  call void @llvm.lifetime.end.p0(i64 328, ptr nonnull %next) #27
  br label %if.end43

ehcleanup39:                                      ; preds = %ehcleanup, %lpad9
  %.pn.pn = phi { ptr, i32 } [ %.pn, %ehcleanup ], [ %13, %lpad9 ]
  call void @_ZN8QuantLib19CappedFlooredCouponD1Ev(ptr noundef nonnull align 8 dereferenceable(216) %previous) #27
  br label %ehcleanup40

ehcleanup40:                                      ; preds = %ehcleanup39, %lpad
  %.pn.pn.pn = phi { ptr, i32 } [ %.pn.pn, %ehcleanup39 ], [ %12, %lpad ]
  call void @llvm.lifetime.end.p0(i64 328, ptr nonnull %previous) #27
  call void @_ZN8QuantLib19CappedFlooredCouponD1Ev(ptr noundef nonnull align 8 dereferenceable(216) %next) #27
  call void @llvm.lifetime.end.p0(i64 328, ptr nonnull %next) #27
  resume { ptr, i32 } %.pn.pn.pn

if.end43:                                         ; preds = %if.end, %entry
  %callOptionRate.0 = phi double [ %callOptionRate.1, %if.end ], [ 0.000000e+00, %entry ]
  ret double %callOptionRate.0
}